(dp0
I0
(lp1
S'http://lyle.smu.edu/~fmoore/'
p2
aVSpring 2015 Freeman L. Moore, PhD email: fmoore@lyle.smu.edu . Fall 2014 CSE 5330/7330 Keep looking at the Course calendar in
p3
asI1
(lp4
S'http://lyle.smu.edu/~fmoore/schedule.htm'
p5
aV2015 Preliminary Schedule Keep referring to this page for latest schedule. Date Topics Activity Jan 20 Course overview, Introduction to
p6
asI2
(lp7
S'http://lyle.smu.edu/~fmoore/misc/porter_stemmer_example.html'
p8
aVJavascript Porter Stemmer Online Find out more about the Porter Stemming algorithm at the official site. Example: Do you really
p9
asI3
(lp10
S'http://lyle.smu.edu/~fmoore/misc/urlexample1.htm'
p11
aVExample from February 10, 2015 How many distinct URLs are here? ../ ../index.htm http://lyle.smu.edu/~fmoore/ http://lyle.smu.edu/~fmoore http://lyle.smu.edu/~fmoore/index.htm this is a broken
p12
asI4
(lp13
S'http://lyle.smu.edu/~fmoore/notes/review1a.htm'
p14
aV<!-- if( browserSupported ) document.writeln('<div style="visibility:hidden">'); //--> This presentation contains content that your browser may not be able to show
p15
asI5
(lp16
S'http://lyle.smu.edu/~fmoore/misc/k-means.htm'
p17
aVK means example: Consider 4 documents d1: { 1, 0, 1, 0} d2: { 1, 1, 1, 0} d3: {
p18
asI6
(lp19
S'http://lyle.smu.edu/~fmoore/misc/webcrawler.htm'
p20
aVWeb Crawler Open Source Crawlers in Java crawler4j Java Regular Expressions Java: HTML Parser Java: Working with URLs About /robots.txt
p21
asI7
(lp22
S'http://lyle.smu.edu/~fmoore/misc/bayes.html'
p23
aVTraining section These four areas contained four canned paragraphs. Two Spanish and two French. They can be used to seed
p24
asI8
(lp25
S'http://lyle.smu.edu/~fmoore/index.htm'
p26
aVSpring 2015 Freeman L. Moore, PhD email: fmoore@lyle.smu.edu . Fall 2014 CSE 5330/7330 Keep looking at the Course calendar in
p27
asI9
(lp28
S'http://lyle.smu.edu/~fmoore/misc/bayes.js'
p29
aV// These words occur in the english language with enough frequency that they are considered noise. // They will be
p30
asI10
(lp31
S'http://lyle.smu.edu/~fmoore/'
p32
aVSpring 2015 Freeman L. Moore, PhD email: fmoore@lyle.smu.edu . Fall 2014 CSE 5330/7330 Keep looking at the Course calendar in
p33
as.